target datalayout = "e-m:e-p270:32:32-p271:32:32-p272:64:64-i64:64-i128:128-f80:128-n8:16:32:64-S128"
target triple = "x86_64-unknown-linux-gnu"

%"class.google::protobuf::internal::InternalMetadata" = type { i64 }
%"class.google::protobuf::internal::CachedSize" = type { i32 }
%"struct.std::atomic" = type { i64 }
%"class.google::protobuf::internal::MapAllocator" = type { ptr }
%"class.google::protobuf::Message" = type { %"class.google::protobuf::MessageLite" }
%"class.google::protobuf::MessageLite" = type { ptr, %"class.google::protobuf::internal::InternalMetadata" }
%"class.google::protobuf::Struct" = type { %"class.google::protobuf::Message", %union.anon.2 }
%union.anon.2 = type { %"struct.google::protobuf::Struct::Impl_" }
%"struct.google::protobuf::Struct::Impl_" = type <{ %"class.google::protobuf::internal::MapField", %"class.google::protobuf::internal::CachedSize", [4 x i8] }>
%"class.google::protobuf::internal::MapField" = type { %"class.google::protobuf::internal::TypeDefinedMapFieldBase" }
%"class.google::protobuf::internal::TypeDefinedMapFieldBase" = type { %"class.google::protobuf::internal::MapFieldBase", %union.anon.1 }
%"class.google::protobuf::internal::MapFieldBase" = type { %"class.google::protobuf::internal::MapFieldBaseForParse", %"struct.std::atomic" }
%"class.google::protobuf::internal::MapFieldBaseForParse" = type { ptr }
%union.anon.1 = type { %"class.google::protobuf::Map" }
%"class.google::protobuf::Map" = type { %"class.google::protobuf::internal::KeyMapBase" }
%"class.google::protobuf::internal::KeyMapBase" = type { %"class.google::protobuf::internal::UntypedMapBase" }
%"class.google::protobuf::internal::UntypedMapBase" = type { i32, i32, i32, i32, ptr, %"class.google::protobuf::internal::MapAllocator" }
%"struct.google::protobuf::internal::UntypedMapBase::ClearInput" = type { i32, i8, i8, ptr }

; Function Attrs: mustprogress nounwind uwtable
define linkonce_odr hidden noundef i32 @_ZN6google8protobuf8internal12MakeNodeInfoEtt(i16 noundef zeroext %size, i16 noundef zeroext %value_offset) #5 comdat {
entry:
  %size.addr = alloca i16, align 2
  %value_offset.addr = alloca i16, align 2
  store i16 %size, ptr %size.addr, align 2
  store i16 %value_offset, ptr %value_offset.addr, align 2
  %0 = load i16, ptr %size.addr, align 2
  %conv = zext i16 %0 to i32
  %shl = shl i32 %conv, 16
  %1 = load i16, ptr %value_offset.addr, align 2
  %conv1 = zext i16 %1 to i32
  %or = or i32 %shl, %conv1
  ret i32 %or
}

; Function Attrs: mustprogress uwtable
define linkonce_odr hidden noundef i32 @_ZN6google8protobuf3MapINSt7__cxx1112basic_stringIcSt11char_traitsIcESaIcEEENS0_5ValueEE4Node9size_infoEv() #4 comdat align 2 {
entry:
  %call = call noundef i32 @_ZN6google8protobuf8internal12MakeNodeInfoEtt(i16 noundef zeroext 72, i16 noundef zeroext 40)
  ret i32 %call
}

; Function Attrs: mustprogress uwtable
define linkonce_odr hidden { i64, ptr } @_ZN6google8protobuf8internal14UntypedMapBase14MakeClearInputINS0_3MapINSt7__cxx1112basic_stringIcSt11char_traitsIcESaIcEEENS0_5ValueEE4NodeEEENS2_10ClearInputEb(i1 noundef zeroext %reset) #4 comdat align 2 {
entry:
  %retval = alloca %"struct.google::protobuf::internal::UntypedMapBase::ClearInput", align 8
  %reset.addr = alloca i8, align 1
  %bits = alloca i8, align 1
  %frombool = zext i1 %reset to i8
  store i8 %frombool, ptr %reset.addr, align 1
  store i8 5, ptr %bits, align 1
  %size_info = getelementptr inbounds %"struct.google::protobuf::internal::UntypedMapBase::ClearInput", ptr %retval, i32 0, i32 0
  %call = call noundef i32 @_ZN6google8protobuf3MapINSt7__cxx1112basic_stringIcSt11char_traitsIcESaIcEEENS0_5ValueEE4Node9size_infoEv()
  store i32 %call, ptr %size_info, align 8
  %destroy_bits = getelementptr inbounds %"struct.google::protobuf::internal::UntypedMapBase::ClearInput", ptr %retval, i32 0, i32 1
  store i8 5, ptr %destroy_bits, align 4
  %reset_table = getelementptr inbounds %"struct.google::protobuf::internal::UntypedMapBase::ClearInput", ptr %retval, i32 0, i32 2
  %0 = load i8, ptr %reset.addr, align 1
  %tobool = trunc i8 %0 to i1
  %frombool1 = zext i1 %tobool to i8
  store i8 %frombool1, ptr %reset_table, align 1
  %destroy_node = getelementptr inbounds %"struct.google::protobuf::internal::UntypedMapBase::ClearInput", ptr %retval, i32 0, i32 3
  store ptr null, ptr %destroy_node, align 8
  %1 = load { i64, ptr }, ptr %retval, align 8
  ret { i64, ptr } %1
}

; Function Attrs: mustprogress nounwind uwtable
define linkonce_odr hidden void @_ZN6google8protobuf3MapINSt7__cxx1112basic_stringIcSt11char_traitsIcESaIcEEENS0_5ValueEED2Ev(ptr noundef nonnull align 8 dereferenceable(32) %this) unnamed_addr #5 comdat align 2 personality ptr @__gxx_personality_v0 {
entry:
  %this.addr = alloca ptr, align 8
  %agg.tmp = alloca %"struct.google::protobuf::internal::UntypedMapBase::ClearInput", align 8
  store ptr %this, ptr %this.addr, align 8
  %this1 = load ptr, ptr %this.addr, align 8
  %num_buckets_ = getelementptr inbounds %"class.google::protobuf::internal::UntypedMapBase", ptr %this1, i32 0, i32 1
  %0 = load i32, ptr %num_buckets_, align 4
  %conv = zext i32 %0 to i64
  %cmp = icmp ne i64 %conv, 1
  br i1 %cmp, label %if.then, label %if.end

if.then:                                          ; preds = %entry
  %call = invoke { i64, ptr } @_ZN6google8protobuf8internal14UntypedMapBase14MakeClearInputINS0_3MapINSt7__cxx1112basic_stringIcSt11char_traitsIcESaIcEEENS0_5ValueEE4NodeEEENS2_10ClearInputEb(i1 noundef zeroext false)
          to label %invoke.cont unwind label %terminate.lpad

invoke.cont:                                      ; preds = %if.then
  %1 = getelementptr inbounds { i64, ptr }, ptr %agg.tmp, i32 0, i32 0
  %2 = extractvalue { i64, ptr } %call, 0
  store i64 %2, ptr %1, align 8
  %3 = getelementptr inbounds { i64, ptr }, ptr %agg.tmp, i32 0, i32 1
  %4 = extractvalue { i64, ptr } %call, 1
  store ptr %4, ptr %3, align 8
  %5 = getelementptr inbounds { i64, ptr }, ptr %agg.tmp, i32 0, i32 0
  %6 = load i64, ptr %5, align 8
  %7 = getelementptr inbounds { i64, ptr }, ptr %agg.tmp, i32 0, i32 1
  %8 = load ptr, ptr %7, align 8
  invoke void @_ZN6google8protobuf8internal14UntypedMapBase10ClearTableENS2_10ClearInputE(ptr noundef nonnull align 8 dereferenceable(32) %this1, i64 %6, ptr %8)
          to label %invoke.cont2 unwind label %terminate.lpad

invoke.cont2:                                     ; preds = %invoke.cont
  br label %if.end

if.end:                                           ; preds = %invoke.cont2, %entry
  ret void

terminate.lpad:                                   ; preds = %invoke.cont, %if.then
  %9 = landingpad { ptr, i32 }
          catch ptr null
  %10 = extractvalue { ptr, i32 } %9, 0
  call void @__clang_call_terminate(ptr %10) #17
  unreachable
}

; Function Attrs: mustprogress nounwind uwtable
define linkonce_odr hidden void @_ZN6google8protobuf8internal23TypeDefinedMapFieldBaseINSt7__cxx1112basic_stringIcSt11char_traitsIcESaIcEEENS0_5ValueEED2Ev(ptr noundef nonnull align 8 dereferenceable(48) %this) unnamed_addr #5 comdat align 2 {
entry:
  %this.addr = alloca ptr, align 8
  store ptr %this, ptr %this.addr, align 8
  %this1 = load ptr, ptr %this.addr, align 8
  %0 = getelementptr inbounds %"class.google::protobuf::internal::TypeDefinedMapFieldBase", ptr %this1, i32 0, i32 1
  call void @_ZN6google8protobuf3MapINSt7__cxx1112basic_stringIcSt11char_traitsIcESaIcEEENS0_5ValueEED2Ev(ptr noundef nonnull align 8 dereferenceable(32) %0) #3
  call void @_ZN6google8protobuf8internal12MapFieldBaseD2Ev(ptr noundef nonnull align 8 dereferenceable(16) %this1) #3
  ret void
}

; Function Attrs: mustprogress nounwind uwtable
define linkonce_odr hidden void @_ZN6google8protobuf8internal8MapFieldINS0_27Struct_FieldsEntry_DoNotUseENSt7__cxx1112basic_stringIcSt11char_traitsIcESaIcEEENS0_5ValueELNS1_14WireFormatLite9FieldTypeE9ELSC_11EED2Ev(ptr noundef nonnull align 8 dereferenceable(48) %this) unnamed_addr #5 comdat align 2 {
entry:
  %this.addr = alloca ptr, align 8
  store ptr %this, ptr %this.addr, align 8
  %this1 = load ptr, ptr %this.addr, align 8
  call void @_ZN6google8protobuf8internal23TypeDefinedMapFieldBaseINSt7__cxx1112basic_stringIcSt11char_traitsIcESaIcEEENS0_5ValueEED2Ev(ptr noundef nonnull align 8 dereferenceable(48) %this1) #3
  ret void
}

; Function Attrs: mustprogress nounwind uwtable
define linkonce_odr hidden void @_ZN6google8protobuf11MessageLiteD2Ev(ptr noundef nonnull align 8 dereferenceable(16) %this) unnamed_addr #5 comdat align 2 {
entry:
  %this.addr = alloca ptr, align 8
  store ptr %this, ptr %this.addr, align 8
  ret void
}

; Function Attrs: mustprogress nounwind uwtable
define linkonce_odr hidden void @_ZN6google8protobuf6Struct5Impl_D2Ev(ptr noundef nonnull align 8 dereferenceable(52) %this) unnamed_addr #5 comdat align 2 {
entry:
  %this.addr = alloca ptr, align 8
  store ptr %this, ptr %this.addr, align 8
  %this1 = load ptr, ptr %this.addr, align 8
  %fields_ = getelementptr inbounds %"struct.google::protobuf::Struct::Impl_", ptr %this1, i32 0, i32 0
  call void @_ZN6google8protobuf8internal8MapFieldINS0_27Struct_FieldsEntry_DoNotUseENSt7__cxx1112basic_stringIcSt11char_traitsIcESaIcEEENS0_5ValueELNS1_14WireFormatLite9FieldTypeE9ELSC_11EED2Ev(ptr noundef nonnull align 8 dereferenceable(48) %fields_) #3
  ret void
}

; Function Attrs: mustprogress nounwind uwtable
define linkonce_odr hidden void @_ZN6google8protobuf7MessageD2Ev(ptr noundef nonnull align 8 dereferenceable(16) %this) unnamed_addr #5 comdat align 2 {
entry:
  %this.addr = alloca ptr, align 8
  store ptr %this, ptr %this.addr, align 8
  %this1 = load ptr, ptr %this.addr, align 8
  call void @_ZN6google8protobuf11MessageLiteD2Ev(ptr noundef nonnull align 8 dereferenceable(16) %this1) #3
  ret void
}

; Function Attrs: mustprogress nounwind uwtable
define linkonce_odr hidden void @_ZN6google8protobuf6Struct10SharedDtorEv(ptr noundef nonnull align 8 dereferenceable(72) %this) #5 comdat align 2 {
entry:
  %this.addr = alloca ptr, align 8
  store ptr %this, ptr %this.addr, align 8
  %this1 = load ptr, ptr %this.addr, align 8
  %0 = getelementptr inbounds %"class.google::protobuf::Struct", ptr %this1, i32 0, i32 1
  call void @_ZN6google8protobuf6Struct5Impl_D2Ev(ptr noundef nonnull align 8 dereferenceable(52) %0) #3
  ret void
}

; Function Attrs: mustprogress uwtable
define linkonce_odr hidden void @_ZN6google8protobuf8internal16InternalMetadata6DeleteINS0_15UnknownFieldSetEEEvv(ptr noundef nonnull align 8 dereferenceable(8) %this) #4 comdat align 2 {
entry:
  %this.addr.i2 = alloca ptr, align 8
  %this.addr.i = alloca ptr, align 8
  %this.addr = alloca ptr, align 8
  store ptr %this, ptr %this.addr, align 8
  %this1 = load ptr, ptr %this.addr, align 8
  store ptr %this1, ptr %this.addr.i, align 8
  %this1.i = load ptr, ptr %this.addr.i, align 8
  store ptr %this1.i, ptr %this.addr.i2, align 8
  %this1.i3 = load ptr, ptr %this.addr.i2, align 8
  %0 = load i64, ptr %this1.i3, align 8
  %and.i = and i64 %0, 1
  %tobool.i = icmp ne i64 %and.i, 0
  br i1 %tobool.i, label %if.then, label %if.end

if.then:                                          ; preds = %entry
  call void @_ZN6google8protobuf8internal16InternalMetadata21DeleteOutOfLineHelperINS0_15UnknownFieldSetEEEvv(ptr noundef nonnull align 8 dereferenceable(8) %this1)
  br label %if.end

if.end:                                           ; preds = %if.then, %entry
  ret void
}

; Function Attrs: mustprogress nounwind uwtable
define void @_ZN6google8protobuf6StructD2Ev(ptr noundef nonnull align 8 dereferenceable(72) %this) unnamed_addr #5 align 2 personality ptr @__gxx_personality_v0 {
entry:
  %this.addr = alloca ptr, align 8
  store ptr %this, ptr %this.addr, align 8
  %this1 = load ptr, ptr %this.addr, align 8
  %_internal_metadata_ = getelementptr inbounds %"class.google::protobuf::MessageLite", ptr %this1, i32 0, i32 1
  invoke void @_ZN6google8protobuf8internal16InternalMetadata6DeleteINS0_15UnknownFieldSetEEEvv(ptr noundef nonnull align 8 dereferenceable(8) %_internal_metadata_)
          to label %invoke.cont unwind label %terminate.lpad

invoke.cont:                                      ; preds = %entry
  invoke void @_ZN6google8protobuf6Struct10SharedDtorEv(ptr noundef nonnull align 8 dereferenceable(72) %this1)
          to label %invoke.cont2 unwind label %terminate.lpad

invoke.cont2:                                     ; preds = %invoke.cont
  call void @_ZN6google8protobuf7MessageD2Ev(ptr noundef nonnull align 8 dereferenceable(16) %this1) #3
  ret void

terminate.lpad:                                   ; preds = %invoke.cont, %entry
  %0 = landingpad { ptr, i32 }
          catch ptr null
  %1 = extractvalue { ptr, i32 } %0, 0
  call void @__clang_call_terminate(ptr %1) #17
  unreachable
}