; Function Attrs: mustprogress nounwind uwtable
define void @_ZN6google8protobuf6StructD2Ev(ptr noundef nonnull align 8 dereferenceable(72) %this) unnamed_addr #6 align 2 personality ptr @__gxx_personality_v0 {
entry:
  %_internal_metadata_ = getelementptr inbounds i8, ptr %this, i64 8
  %0 = load i64, ptr %_internal_metadata_, align 8
  %and.i.i = and i64 %0, 1
  %tobool.i.not.i = icmp eq i64 %and.i.i, 0
  br i1 %tobool.i.not.i, label %invoke.cont, label %if.then.i

if.then.i:                                        ; preds = %entry
  invoke void @_ZN6google8protobuf8internal16InternalMetadata21DeleteOutOfLineHelperINS0_15UnknownFieldSetEEEvv(ptr noundef nonnull align 8 dereferenceable(8) %_internal_metadata_)
          to label %invoke.cont unwind label %terminate.lpad

invoke.cont:                                      ; preds = %entry, %if.then.i
  %num_buckets_.i.i.i.i.i = getelementptr inbounds i8, ptr %this, i64 36
  %1 = load i32, ptr %num_buckets_.i.i.i.i.i, align 4
  %cmp.not.i.i.i.i.i = icmp eq i32 %1, 1
  br i1 %cmp.not.i.i.i.i.i, label %_ZN6google8protobuf6Struct10SharedDtorEv.exit, label %invoke.cont.i.i.i.i.i

invoke.cont.i.i.i.i.i:                            ; preds = %invoke.cont
  %2 = getelementptr inbounds i8, ptr %this, i64 32
  invoke void @_ZN6google8protobuf8internal14UntypedMapBase10ClearTableENS2_10ClearInputE(ptr noundef nonnull align 8 dereferenceable(32) %2, i64 21479555112, ptr null)
          to label %_ZN6google8protobuf6Struct10SharedDtorEv.exit unwind label %terminate.lpad.i.i.i.i.i

terminate.lpad.i.i.i.i.i:                         ; preds = %invoke.cont.i.i.i.i.i
  %3 = landingpad { ptr, i32 }
          catch ptr null
  %4 = extractvalue { ptr, i32 } %3, 0
  tail call void @__clang_call_terminate(ptr %4) #24
  unreachable

_ZN6google8protobuf6Struct10SharedDtorEv.exit:    ; preds = %invoke.cont, %invoke.cont.i.i.i.i.i
  %5 = getelementptr inbounds i8, ptr %this, i64 16
  tail call void @_ZN6google8protobuf8internal12MapFieldBaseD2Ev(ptr noundef nonnull align 8 dereferenceable(16) %5) #23
  ret void

terminate.lpad:                                   ; preds = %if.then.i
  %6 = landingpad { ptr, i32 }
          catch ptr null
  %7 = extractvalue { ptr, i32 } %6, 0
  tail call void @__clang_call_terminate(ptr %7) #24
  unreachable
}